(dp0
S'statusList'
p1
(lp2
sS'triggerPerFile'
p3
I10
sS'currentFolder'
p4
S''
p5
sS'maxTriggerNumber'
p6
I1
sS'calibFile'
p7
g5
sS'localIP'
p8
(S'0.0.0.0'
p9
I8106
tp10
sS'fileTag'
p11
S'run'
p12
sS'triggerType'
p13
S'None'
p14
sS'targetIP'
p15
(S'192.168.0.173'
p16
I8105
tp17
sS't5cfgfile'
p18
S't5configfast.csv'
p19
s.